target datalayout = "e-m:e-p270:32:32-p271:32:32-p272:64:64-i64:64-i128:128-f80:128-n8:16:32:64-S128"
target triple = "x86_64-pc-linux-gnu"

%struct.ByteStreamBE = type { ptr, i32, i32 }
%struct.LibRaw_LjpegDecompressor = type <{ %struct.ByteStreamBE, %struct.LibRaw_SOFInfo, i32, i32, i32, [4 x i8], %"class.std::vector.0", i32, [4 x i8] }>
%struct.LibRaw_SOFInfo = type <{ i32, i32, i32, i32, %"class.std::vector", i8, [7 x i8] }>
%"class.std::vector" = type { %"struct.std::_Vector_base" }
%"struct.std::_Vector_base" = type { %"struct.std::_Vector_base<LibRaw_JpegComponentInfo, std::allocator<LibRaw_JpegComponentInfo>>::_Vector_impl" }
%"struct.std::_Vector_base<LibRaw_JpegComponentInfo, std::allocator<LibRaw_JpegComponentInfo>>::_Vector_impl" = type { %"struct.std::_Vector_base<LibRaw_JpegComponentInfo, std::allocator<LibRaw_JpegComponentInfo>>::_Vector_impl_data" }
%"struct.std::_Vector_base<LibRaw_JpegComponentInfo, std::allocator<LibRaw_JpegComponentInfo>>::_Vector_impl_data" = type { ptr, ptr, ptr }
%"class.std::vector.0" = type { %"struct.std::_Vector_base.1" }
%"struct.std::_Vector_base.1" = type { %"struct.std::_Vector_base<HuffTable, std::allocator<HuffTable>>::_Vector_impl" }
%"struct.std::_Vector_base<HuffTable, std::allocator<HuffTable>>::_Vector_impl" = type { %"struct.std::_Vector_base<HuffTable, std::allocator<HuffTable>>::_Vector_impl_data" }
%"struct.std::_Vector_base<HuffTable, std::allocator<HuffTable>>::_Vector_impl_data" = type { ptr, ptr, ptr }

@_ZTIN12ByteStreamBE10ExceptionsE = linkonce_odr constant { ptr, ptr } { ptr getelementptr inbounds (ptr, ptr @_ZTVN10__cxxabiv116__enum_type_infoE, i64 2), ptr @_ZTSN12ByteStreamBE10ExceptionsE }, comdat, align 8

; Function Attrs: mustprogress nounwind uwtable
define noundef zeroext i1 @_ZN12ByteStreamBE14skip_to_markerEv(ptr noundef nonnull align 8 dereferenceable(16) %0) #0 align 2 {
  %2 = alloca i1, align 1
  %3 = alloca ptr, align 8
  store ptr %0, ptr %3, align 8, !tbaa !6
  %4 = load ptr, ptr %3, align 8
  %5 = getelementptr inbounds nuw %struct.ByteStreamBE, ptr %4, i32 0, i32 2
  %6 = load i32, ptr %5, align 4, !tbaa !11
  %7 = add i32 %6, 2
  %8 = getelementptr inbounds nuw %struct.ByteStreamBE, ptr %4, i32 0, i32 1
  %9 = load i32, ptr %8, align 8, !tbaa !15
  %10 = icmp ugt i32 %7, %9
  br i1 %10, label %11, label %12

11:                                               ; preds = %1
  store i1 false, ptr %2, align 1
  br label %64

12:                                               ; preds = %1
  br label %13

13:                                               ; preds = %59, %12
  %14 = getelementptr inbounds nuw %struct.ByteStreamBE, ptr %4, i32 0, i32 0
  %15 = load ptr, ptr %14, align 8, !tbaa !16
  %16 = getelementptr inbounds nuw %struct.ByteStreamBE, ptr %4, i32 0, i32 2
  %17 = load i32, ptr %16, align 4, !tbaa !11
  %18 = zext i32 %17 to i64
  %19 = getelementptr inbounds nuw i8, ptr %15, i64 %18
  %20 = load i8, ptr %19, align 1, !tbaa !17
  %21 = zext i8 %20 to i32
  %22 = icmp eq i32 %21, 255
  br i1 %22, label %23, label %45

23:                                               ; preds = %13
  %24 = getelementptr inbounds nuw %struct.ByteStreamBE, ptr %4, i32 0, i32 0
  %25 = load ptr, ptr %24, align 8, !tbaa !16
  %26 = getelementptr inbounds nuw %struct.ByteStreamBE, ptr %4, i32 0, i32 2
  %27 = load i32, ptr %26, align 4, !tbaa !11
  %28 = add i32 %27, 1
  %29 = zext i32 %28 to i64
  %30 = getelementptr inbounds nuw i8, ptr %25, i64 %29
  %31 = load i8, ptr %30, align 1, !tbaa !17
  %32 = zext i8 %31 to i32
  %33 = icmp ne i32 %32, 0
  br i1 %33, label %34, label %45

34:                                               ; preds = %23
  %35 = getelementptr inbounds nuw %struct.ByteStreamBE, ptr %4, i32 0, i32 0
  %36 = load ptr, ptr %35, align 8, !tbaa !16
  %37 = getelementptr inbounds nuw %struct.ByteStreamBE, ptr %4, i32 0, i32 2
  %38 = load i32, ptr %37, align 4, !tbaa !11
  %39 = add i32 %38, 1
  %40 = zext i32 %39 to i64
  %41 = getelementptr inbounds nuw i8, ptr %36, i64 %40
  %42 = load i8, ptr %41, align 1, !tbaa !17
  %43 = zext i8 %42 to i32
  %44 = icmp ne i32 %43, 255
  br label %45

45:                                               ; preds = %34, %23, %13
  %46 = phi i1 [ false, %23 ], [ false, %13 ], [ %44, %34 ]
  %47 = xor i1 %46, true
  br i1 %47, label %48, label %60

48:                                               ; preds = %45
  %49 = getelementptr inbounds nuw %struct.ByteStreamBE, ptr %4, i32 0, i32 2
  %50 = load i32, ptr %49, align 4, !tbaa !11
  %51 = add i32 %50, 1
  store i32 %51, ptr %49, align 4, !tbaa !11
  %52 = getelementptr inbounds nuw %struct.ByteStreamBE, ptr %4, i32 0, i32 2
  %53 = load i32, ptr %52, align 4, !tbaa !11
  %54 = add i32 %53, 2
  %55 = getelementptr inbounds nuw %struct.ByteStreamBE, ptr %4, i32 0, i32 1
  %56 = load i32, ptr %55, align 8, !tbaa !15
  %57 = icmp ugt i32 %54, %56
  br i1 %57, label %58, label %59

58:                                               ; preds = %48
  store i1 false, ptr %2, align 1
  br label %64

59:                                               ; preds = %48
  br label %13, !llvm.loop !18

60:                                               ; preds = %45
  %61 = getelementptr inbounds nuw %struct.ByteStreamBE, ptr %4, i32 0, i32 2
  %62 = load i32, ptr %61, align 4, !tbaa !11
  %63 = add i32 %62, 1
  store i32 %63, ptr %61, align 4, !tbaa !11
  store i1 true, ptr %2, align 1
  br label %64

64:                                               ; preds = %60, %58, %11
  %65 = load i1, ptr %2, align 1
  ret i1 %65
}

; Function Attrs: mustprogress uwtable
define linkonce_odr noundef zeroext i8 @_ZN12ByteStreamBE6get_u8Ev(ptr noundef nonnull align 8 dereferenceable(16) %0) #1 comdat align 2 {
  %2 = alloca ptr, align 8
  %3 = alloca i8, align 1
  store ptr %0, ptr %2, align 8, !tbaa !6
  %4 = load ptr, ptr %2, align 8
  %5 = getelementptr inbounds nuw %struct.ByteStreamBE, ptr %4, i32 0, i32 2
  %6 = load i32, ptr %5, align 4, !tbaa !11
  %7 = getelementptr inbounds nuw %struct.ByteStreamBE, ptr %4, i32 0, i32 1
  %8 = load i32, ptr %7, align 8, !tbaa !15
  %9 = icmp uge i32 %6, %8
  br i1 %9, label %10, label %12

10:                                               ; preds = %1
  %11 = call ptr @__cxa_allocate_exception(i64 4) #12
  store i32 1, ptr %11, align 16, !tbaa !99
  call void @__cxa_throw(ptr %11, ptr @_ZTIN12ByteStreamBE10ExceptionsE, ptr null) #14
  unreachable

12:                                               ; preds = %1
  call void @llvm.lifetime.start.p0(i64 1, ptr %3) #12
  %13 = getelementptr inbounds nuw %struct.ByteStreamBE, ptr %4, i32 0, i32 0
  %14 = load ptr, ptr %13, align 8, !tbaa !16
  %15 = getelementptr inbounds nuw %struct.ByteStreamBE, ptr %4, i32 0, i32 2
  %16 = load i32, ptr %15, align 4, !tbaa !11
  %17 = zext i32 %16 to i64
  %18 = getelementptr inbounds nuw i8, ptr %14, i64 %17
  %19 = load i8, ptr %18, align 1, !tbaa !17
  store i8 %19, ptr %3, align 1, !tbaa !17
  %20 = getelementptr inbounds nuw %struct.ByteStreamBE, ptr %4, i32 0, i32 2
  %21 = load i32, ptr %20, align 4, !tbaa !11
  %22 = add i32 %21, 1
  store i32 %22, ptr %20, align 4, !tbaa !11
  %23 = load i8, ptr %3, align 1, !tbaa !17
  call void @llvm.lifetime.end.p0(i64 1, ptr %3) #12
  ret i8 %23
}

; Function Attrs: mustprogress uwtable
define noundef zeroext i8 @_ZN24LibRaw_LjpegDecompressor11next_markerEb(ptr noundef nonnull align 8 dereferenceable(108) %0, i1 noundef zeroext %1) #1 align 2 {
  %3 = alloca i8, align 1
  %4 = alloca ptr, align 8
  %5 = alloca i8, align 1
  %6 = alloca i8, align 1
  store ptr %0, ptr %4, align 8, !tbaa !20
  %7 = zext i1 %1 to i8
  store i8 %7, ptr %5, align 1, !tbaa !24
  %8 = load ptr, ptr %4, align 8
  %9 = load i8, ptr %5, align 1, !tbaa !24, !range !40, !noundef !41
  %10 = trunc i8 %9 to i1
  br i1 %10, label %21, label %11

11:                                               ; preds = %2
  %12 = getelementptr inbounds nuw %struct.LibRaw_LjpegDecompressor, ptr %8, i32 0, i32 0
  %13 = call noundef zeroext i8 @_ZN12ByteStreamBE6get_u8Ev(ptr noundef nonnull align 8 dereferenceable(16) %12)
  %14 = zext i8 %13 to i32
  %15 = icmp ne i32 %14, 255
  br i1 %15, label %16, label %17

16:                                               ; preds = %11
  store i8 -1, ptr %3, align 1
  br label %28

17:                                               ; preds = %11
  call void @llvm.lifetime.start.p0(i64 1, ptr %6) #12
  %18 = getelementptr inbounds nuw %struct.LibRaw_LjpegDecompressor, ptr %8, i32 0, i32 0
  %19 = call noundef zeroext i8 @_ZN12ByteStreamBE6get_u8Ev(ptr noundef nonnull align 8 dereferenceable(16) %18)
  store i8 %19, ptr %6, align 1, !tbaa !17
  %20 = load i8, ptr %6, align 1, !tbaa !17
  store i8 %20, ptr %3, align 1
  call void @llvm.lifetime.end.p0(i64 1, ptr %6) #12
  br label %28

21:                                               ; preds = %2
  %22 = getelementptr inbounds nuw %struct.LibRaw_LjpegDecompressor, ptr %8, i32 0, i32 0
  %23 = call noundef zeroext i1 @_ZN12ByteStreamBE14skip_to_markerEv(ptr noundef nonnull align 8 dereferenceable(16) %22)
  br i1 %23, label %24, label %27

24:                                               ; preds = %21
  %25 = getelementptr inbounds nuw %struct.LibRaw_LjpegDecompressor, ptr %8, i32 0, i32 0
  %26 = call noundef zeroext i8 @_ZN12ByteStreamBE6get_u8Ev(ptr noundef nonnull align 8 dereferenceable(16) %25)
  store i8 %26, ptr %3, align 1
  br label %28

27:                                               ; preds = %21
  store i8 -1, ptr %3, align 1
  br label %28

28:                                               ; preds = %27, %24, %17, %16
  %29 = load i8, ptr %3, align 1
  ret i8 %29
}