; Function Attrs: mustprogress uwtable
define noundef zeroext i8 @_ZN24LibRaw_LjpegDecompressor11next_markerEb(ptr noundef nonnull align 8 captures(none) dereferenceable(108) %0, i1 noundef zeroext %1) local_unnamed_addr #1 align 2 {
  %3 = getelementptr inbounds nuw i8, ptr %0, i64 12
  %4 = load i32, ptr %3, align 4, !tbaa !6
  br i1 %1, label %20, label %5

5:                                                ; preds = %2
  %6 = getelementptr inbounds nuw i8, ptr %0, i64 8
  %7 = load i32, ptr %6, align 8, !tbaa !13
  %.not.i = icmp ult i32 %4, %7
  br i1 %.not.i, label %_ZN12ByteStreamBE6get_u8Ev.exit, label %8

8:                                                ; preds = %5
  %9 = tail call ptr @__cxa_allocate_exception(i64 4) #17
  store i32 1, ptr %9, align 16, !tbaa !36
  tail call void @__cxa_throw(ptr nonnull %9, ptr nonnull @_ZTIN12ByteStreamBE10ExceptionsE, ptr null) #19
  unreachable

_ZN12ByteStreamBE6get_u8Ev.exit:                  ; preds = %5
  %10 = load ptr, ptr %0, align 8, !tbaa !14
  %11 = zext i32 %4 to i64
  %12 = getelementptr inbounds nuw i8, ptr %10, i64 %11
  %13 = load i8, ptr %12, align 1, !tbaa !15
  %14 = add nuw i32 %4, 1
  store i32 %14, ptr %3, align 4, !tbaa !6
  %.not = icmp eq i8 %13, -1
  br i1 %.not, label %15, label %_ZN12ByteStreamBE14skip_to_markerEv.exit.thread

15:                                               ; preds = %_ZN12ByteStreamBE6get_u8Ev.exit
  %.not.i3 = icmp ult i32 %14, %7
  br i1 %.not.i3, label %_ZN12ByteStreamBE6get_u8Ev.exit4, label %16

16:                                               ; preds = %15
  %17 = tail call ptr @__cxa_allocate_exception(i64 4) #17
  store i32 1, ptr %17, align 16, !tbaa !36
  tail call void @__cxa_throw(ptr nonnull %17, ptr nonnull @_ZTIN12ByteStreamBE10ExceptionsE, ptr null) #19
  unreachable

_ZN12ByteStreamBE6get_u8Ev.exit4:                 ; preds = %15
  %18 = zext i32 %14 to i64
  %19 = getelementptr inbounds nuw i8, ptr %10, i64 %18
  br label %_ZN12ByteStreamBE14skip_to_markerEv.exit.thread.sink.split

20:                                               ; preds = %2
  %21 = add i32 %4, 2
  %22 = getelementptr inbounds nuw i8, ptr %0, i64 8
  %23 = load i32, ptr %22, align 8, !tbaa !13
  %24 = icmp ugt i32 %21, %23
  br i1 %24, label %_ZN12ByteStreamBE14skip_to_markerEv.exit.thread, label %.preheader.i

.preheader.i:                                     ; preds = %20
  %25 = load ptr, ptr %0, align 8, !tbaa !14
  br label %26

26:                                               ; preds = %.critedge.i, %.preheader.i
  %27 = phi i32 [ %4, %.preheader.i ], [ %32, %.critedge.i ]
  %28 = zext i32 %27 to i64
  %29 = getelementptr inbounds nuw i8, ptr %25, i64 %28
  %30 = load i8, ptr %29, align 1, !tbaa !15
  %31 = icmp eq i8 %30, -1
  %32 = add i32 %27, 1
  br i1 %31, label %33, label %.critedge.i

33:                                               ; preds = %26
  %34 = zext i32 %32 to i64
  %35 = getelementptr inbounds nuw i8, ptr %25, i64 %34
  %36 = load i8, ptr %35, align 1, !tbaa !15
  switch i8 %36, label %39 [
    i8 -1, label %.critedge.i
    i8 0, label %.critedge.i
  ]

.critedge.i:                                      ; preds = %33, %33, %26
  store i32 %32, ptr %3, align 4, !tbaa !6
  %37 = add i32 %27, 3
  %38 = icmp ugt i32 %37, %23
  br i1 %38, label %_ZN12ByteStreamBE14skip_to_markerEv.exit.thread, label %26, !llvm.loop !16

39:                                               ; preds = %33
  store i32 %32, ptr %3, align 4, !tbaa !6
  %.not.i5 = icmp ult i32 %32, %23
  br i1 %.not.i5, label %_ZN12ByteStreamBE6get_u8Ev.exit6, label %40

40:                                               ; preds = %39
  %41 = tail call ptr @__cxa_allocate_exception(i64 4) #17
  store i32 1, ptr %41, align 16, !tbaa !36
  tail call void @__cxa_throw(ptr nonnull %41, ptr nonnull @_ZTIN12ByteStreamBE10ExceptionsE, ptr null) #19
  unreachable

_ZN12ByteStreamBE6get_u8Ev.exit6:                 ; preds = %39
  %42 = getelementptr inbounds nuw i8, ptr %25, i64 %34
  br label %_ZN12ByteStreamBE14skip_to_markerEv.exit.thread.sink.split

_ZN12ByteStreamBE14skip_to_markerEv.exit.thread.sink.split: ; preds = %_ZN12ByteStreamBE6get_u8Ev.exit4, %_ZN12ByteStreamBE6get_u8Ev.exit6
  %.lcssa16.sink = phi i32 [ %27, %_ZN12ByteStreamBE6get_u8Ev.exit6 ], [ %4, %_ZN12ByteStreamBE6get_u8Ev.exit4 ]
  %.0.ph.in = phi ptr [ %42, %_ZN12ByteStreamBE6get_u8Ev.exit6 ], [ %19, %_ZN12ByteStreamBE6get_u8Ev.exit4 ]
  %.0.ph = load i8, ptr %.0.ph.in, align 1, !tbaa !15
  %43 = add i32 %.lcssa16.sink, 2
  store i32 %43, ptr %3, align 4, !tbaa !6
  br label %_ZN12ByteStreamBE14skip_to_markerEv.exit.thread

_ZN12ByteStreamBE14skip_to_markerEv.exit.thread:  ; preds = %.critedge.i, %_ZN12ByteStreamBE14skip_to_markerEv.exit.thread.sink.split, %20, %_ZN12ByteStreamBE6get_u8Ev.exit
  %.0 = phi i8 [ -1, %_ZN12ByteStreamBE6get_u8Ev.exit ], [ -1, %20 ], [ %.0.ph, %_ZN12ByteStreamBE14skip_to_markerEv.exit.thread.sink.split ], [ -1, %.critedge.i ]
  ret i8 %.0
}